Certificate:
    Data:
        Version: 3 (0x2)
        Serial Number: 4 (0x4)
        Signature Algorithm: sha1WithRSAEncryption
        Issuer: C=US, ST=Massachusetts, L=Cambridge, O=MIT Computer Science & Artificial Intelligence Lab, CN=CSAIL Master CA v2/emailAddress=bug-certificates@csail.mit.edu
        Validity
            Not Before: Jul  1 00:00:00 2011 GMT
            Not After : Jun 30 23:59:59 2017 GMT
        Subject: C=US, ST=Massachusetts, L=Cambridge, O=MIT Computer Science & Artificial Intelligence Lab, CN=Server CA
        Subject Public Key Info:
            Public Key Algorithm: rsaEncryption
            RSA Public Key: (2048 bit)
                Modulus (2048 bit):
                    00:c1:e7:c7:6f:82:bb:f9:4f:de:a1:ba:07:9f:48:
                    aa:18:da:81:17:5b:1e:cc:c9:b3:27:2e:d0:c5:ed:
                    fd:4e:bc:7a:18:95:71:b0:79:40:3f:d8:26:fd:e8:
                    06:eb:0b:65:2c:bb:55:6f:e5:97:79:ab:8e:a6:62:
                    75:d8:b8:e4:d8:c4:dd:87:dc:08:26:cc:19:dd:2d:
                    fe:19:4e:35:6b:68:69:47:9a:50:a1:25:5f:bf:cf:
                    09:0b:02:bd:b1:b7:0a:57:c6:6b:95:8d:47:93:73:
                    ca:00:71:86:6b:a1:ad:96:d3:5a:91:66:1f:76:de:
                    47:c7:34:f3:36:67:7a:e5:11:b0:d3:15:2d:36:36:
                    77:8e:3c:52:d9:3a:3d:08:1d:47:e3:92:89:dc:3c:
                    ab:a9:b8:c6:a5:82:87:09:94:19:54:4b:b2:a6:a7:
                    67:34:a7:ee:3b:7e:03:6f:d6:eb:7e:65:36:d9:b5:
                    83:80:af:ed:d3:da:d1:60:30:74:a0:86:72:f8:77:
                    12:7c:9e:17:d3:ce:14:33:6b:93:13:51:b5:32:9a:
                    ae:13:0d:86:f1:19:1f:b6:a3:b0:78:d8:0f:62:7f:
                    39:c8:3d:ec:5e:c2:32:0f:a9:ee:6e:4e:34:17:6e:
                    e0:7a:b0:9b:91:da:31:09:6a:f3:3f:cf:d7:c5:7a:
                    08:77
                Exponent: 65537 (0x10001)
        X509v3 extensions:
            X509v3 Key Usage: critical
                Certificate Sign, CRL Sign
            X509v3 Basic Constraints: critical
                CA:TRUE, pathlen:0
            Netscape Cert Type: 
                SSL CA
            X509v3 Certificate Policies: 
                Policy: privateUsePolicy
                  CPS: http://ca.csail.mit.edu/CSAIL-cps.txt

            X509v3 CRL Distribution Points: 
                URI:http://ca.csail.mit.edu/crl/master.crl

            Authority Information Access: 
                CA Issuers - URI:http://ca.csail.mit.edu/

            X509v3 Subject Key Identifier: 
                0E:A4:BF:C7:14:5D:99:58:3D:D5:38:44:30:B5:BA:B2:9C:51:A5:6B
            X509v3 Authority Key Identifier: 
                keyid:24:70:9B:96:7F:C2:7D:70:77:EF:68:4C:2E:A3:F5:02:23:52:6C:B9

    Signature Algorithm: sha1WithRSAEncryption
        00:e7:a7:3a:64:e5:d9:d1:79:61:d0:4b:02:c5:41:54:5b:03:
        4c:df:3b:b4:f5:40:bb:a6:cf:11:76:da:55:e6:3f:62:25:1b:
        9a:f5:d9:51:00:92:62:10:71:66:fd:a7:f7:45:82:c5:3d:d3:
        01:fe:09:f6:bf:ea:66:17:f1:93:d3:36:d1:b7:b5:54:dc:70:
        64:32:9b:bd:bc:1b:42:fa:10:60:bf:18:bc:ea:21:3b:0b:b8:
        4c:59:f1:3b:fe:f6:c7:f7:23:87:fa:42:11:66:93:f4:ab:64:
        53:96:aa:08:1e:7a:b7:4f:9e:0d:42:21:c2:fd:a5:50:b2:72:
        4a:a8:8a:87:40:76:16:e3:12:07:dd:ed:37:dc:a3:f0:84:92:
        7a:b5:41:ea:2b:b2:d3:40:eb:84:59:3b:13:79:53:8e:f2:26:
        39:65:9c:ec:98:03:f5:b2:ea:b0:6d:b1:59:82:39:e7:4f:5d:
        39:1a:20:4d:a0:ce:86:f8:11:2c:3a:1c:13:ce:66:f7:dc:bc:
        ff:cb:f7:44:e7:13:de:d5:1b:41:98:10:0b:7b:96:67:af:e0:
        54:56:23:78:0e:de:b5:ba:7f:be:34:53:27:7b:da:a0:fd:14:
        7e:72:d6:54:d9:58:a2:9b:63:22:e8:a7:82:8a:51:94:7e:7b:
        d7:ef:38:60:5e:97:45:5c:05:38:f9:c9:11:a9:e8:e3:6d:92:
        98:10:fc:66:fe:27:7d:83:07:e6:50:4b:e4:fa:fd:c0:71:cc:
        c8:d4:1a:8c:e5:bb:26:97:d6:0e:f2:38:52:b8:0e:ff:44:ff:
        00:bc:c2:ee:98:c8:67:5c:24:fd:e7:2e:2e:d0:a3:83:d8:34:
        b5:9b:ae:a0:f5:a2:dc:60:82:b6:8b:ee:f0:6e:90:06:24:29:
        ad:02:b1:ef:ad:8e:69:36:8c:ab:a9:54:4d:25:0b:c9:8c:bb:
        84:ac:40:e6:93:c4:b9:7f:ba:68:ce:c7:62:dc:f4:57:fe:7f:
        8c:53:36:a1:9d:3d

-----BEGIN CERTIFICATE-----
MIIFgzCCA+ugAwIBAgIBBDANBgkqhkiG9w0BAQUFADCBwjELMAkGA1UEBhMCVVMx
FjAUBgNVBAgMDU1hc3NhY2h1c2V0dHMxEjAQBgNVBAcMCUNhbWJyaWRnZTE7MDkG
A1UECgwyTUlUIENvbXB1dGVyIFNjaWVuY2UgJiBBcnRpZmljaWFsIEludGVsbGln
ZW5jZSBMYWIxGzAZBgNVBAMMEkNTQUlMIE1hc3RlciBDQSB2MjEtMCsGCSqGSIb3
DQEJARYeYnVnLWNlcnRpZmljYXRlc0Bjc2FpbC5taXQuZWR1MB4XDTExMDcwMTAw
MDAwMFoXDTE3MDYzMDIzNTk1OVowgYoxCzAJBgNVBAYTAlVTMRYwFAYDVQQIEw1N
YXNzYWNodXNldHRzMRIwEAYDVQQHEwlDYW1icmlkZ2UxOzA5BgNVBAoUMk1JVCBD
b21wdXRlciBTY2llbmNlICYgQXJ0aWZpY2lhbCBJbnRlbGxpZ2VuY2UgTGFiMRIw
EAYDVQQDEwlTZXJ2ZXIgQ0EwggEiMA0GCSqGSIb3DQEBAQUAA4IBDwAwggEKAoIB
AQDB58dvgrv5T96hugefSKoY2oEXWx7MybMnLtDF7f1OvHoYlXGweUA/2Cb96Abr
C2Usu1Vv5Zd5q46mYnXYuOTYxN2H3AgmzBndLf4ZTjVraGlHmlChJV+/zwkLAr2x
twpXxmuVjUeTc8oAcYZroa2W01qRZh923kfHNPM2Z3rlEbDTFS02NneOPFLZOj0I
HUfjkoncPKupuMalgocJlBlUS7Kmp2c0p+47fgNv1ut+ZTbZtYOAr+3T2tFgMHSg
hnL4dxJ8nhfTzhQza5MTUbUymq4TDYbxGR+2o7B42A9ifznIPexewjIPqe5uTjQX
buB6sJuR2jEJavM/z9fFegh3AgMBAAGjggE4MIIBNDAOBgNVHQ8BAf8EBAMCAQYw
EgYDVR0TAQH/BAgwBgEB/wIBADARBglghkgBhvhCAQEEBAMCAgQwTAYDVR0gBEUw
QzBBBgoqhkiG9xIDAQICMDMwMQYIKwYBBQUHAgEWJWh0dHA6Ly9jYS5jc2FpbC5t
aXQuZWR1L0NTQUlMLWNwcy50eHQwNwYDVR0fBDAwLjAsoCqgKIYmaHR0cDovL2Nh
LmNzYWlsLm1pdC5lZHUvY3JsL21hc3Rlci5jcmwwNAYIKwYBBQUHAQEEKDAmMCQG
CCsGAQUFBzAChhhodHRwOi8vY2EuY3NhaWwubWl0LmVkdS8wHQYDVR0OBBYEFA6k
v8cUXZlYPdU4RDC1urKcUaVrMB8GA1UdIwQYMBaAFCRwm5Z/wn1wd+9oTC6j9QIj
Umy5MA0GCSqGSIb3DQEBBQUAA4IBgQAA56c6ZOXZ0Xlh0EsCxUFUWwNM3zu09UC7
ps8RdtpV5j9iJRua9dlRAJJiEHFm/af3RYLFPdMB/gn2v+pmF/GT0zbRt7VU3HBk
Mpu9vBtC+hBgvxi86iE7C7hMWfE7/vbH9yOH+kIRZpP0q2RTlqoIHnq3T54NQiHC
/aVQsnJKqIqHQHYW4xIH3e033KPwhJJ6tUHqK7LTQOuEWTsTeVOO8iY5ZZzsmAP1
suqwbbFZgjnnT105GiBNoM6G+BEsOhwTzmb33Lz/y/dE5xPe1RtBmBALe5Znr+BU
ViN4Dt61un++NFMne9qg/RR+ctZU2Viim2Mi6KeCilGUfnvX7zhgXpdFXAU4+ckR
qejjbZKYEPxm/id9gwfmUEvk+v3AcczI1BqM5bsml9YO8jhSuA7/RP8AvMLumMhn
XCT95y4u0KOD2DS1m66g9aLcYIK2i+7wbpAGJCmtArHvrY5pNoyrqVRNJQvJjLuE
rEDmk8S5f7pozsdi3PRX/n+MUzahnT0=
-----END CERTIFICATE-----

