Certificate:
    Data:
        Version: 3 (0x2)
        Serial Number: 633 (0x279)
        Signature Algorithm: sha1WithRSAEncryption
        Issuer: C=US, ST=Massachusetts, L=Cambridge, O=MIT Computer Science & Artificial Intelligence Lab, CN=Server CA
        Validity
            Not Before: Jan 22 04:07:58 2015 GMT
            Not After : Jan 22 04:07:58 2016 GMT
        Subject: C=US, ST=Massachusetts, L=Cambridge, O=MIT Computer Science & Artificial Intelligence Laboratory, OU=SSL Servers, CN=kibitz.csail.mit.edu
        Subject Public Key Info:
            Public Key Algorithm: rsaEncryption
            RSA Public Key: (2048 bit)
                Modulus (2048 bit):
                    00:90:34:ef:9b:a1:c8:8b:e4:7e:fb:ee:68:fe:3c:
                    4f:a8:41:c4:80:ea:0a:5f:56:b6:5e:59:48:de:cb:
                    e5:64:1d:5f:2c:ff:6e:77:dd:e6:a4:77:03:98:07:
                    25:b3:0f:4e:54:ec:4a:20:81:95:2e:2c:49:4e:49:
                    95:97:32:ea:ea:46:43:fc:71:20:97:1c:ce:dd:81:
                    ef:84:93:3c:5d:44:7b:bf:4b:3d:3c:3c:0a:d3:0e:
                    fe:39:69:be:4f:f4:8f:12:2c:6b:f7:de:e3:8b:2b:
                    c2:17:57:15:58:1c:4a:79:0f:2e:0a:ef:6c:1e:0c:
                    cf:e0:cd:7e:6d:e7:87:9e:fc:19:9c:48:09:bc:6b:
                    66:1b:d9:3b:08:c9:b9:9e:91:0c:f5:fa:bf:74:31:
                    a4:00:f7:cf:eb:65:ab:90:1f:c9:e0:77:46:91:c8:
                    dd:a1:69:33:e5:0b:af:4f:90:d0:c8:7e:68:fe:5d:
                    51:9a:da:7e:6b:c3:9c:dc:08:4a:01:2c:90:ff:21:
                    9f:47:68:47:b7:00:f7:b3:e6:ad:af:e8:27:e7:af:
                    35:4f:46:9a:d4:3c:3f:ed:5b:bb:55:a7:31:b1:85:
                    4c:39:da:5a:52:11:e9:ed:97:ce:23:9d:ad:8b:d3:
                    e3:d4:7e:55:0e:0b:a8:8c:af:76:02:0e:b6:6a:0c:
                    b0:45
                Exponent: 65537 (0x10001)
        X509v3 extensions:
            X509v3 Key Usage: critical
                Digital Signature, Key Encipherment
            X509v3 Extended Key Usage: 
                TLS Web Server Authentication
            Netscape Cert Type: 
                SSL Server
            X509v3 Basic Constraints: 
                CA:FALSE
            X509v3 Certificate Policies: 
                Policy: privateUsePolicy
                  CPS: http://ca.csail.mit.edu/CSAIL-cps.txt

            X509v3 CRL Distribution Points: 
                URI:http://ca.csail.mit.edu/crl/server.crl

            Authority Information Access: 
                CA Issuers - URI:http://ca.csail.mit.edu/

            X509v3 Subject Key Identifier: 
                AE:7E:2E:72:1B:38:D5:7B:75:C4:4D:0D:45:50:20:4B:34:7D:0A:D1
            X509v3 Authority Key Identifier: 
                keyid:0E:A4:BF:C7:14:5D:99:58:3D:D5:38:44:30:B5:BA:B2:9C:51:A5:6B

            X509v3 Subject Alternative Name: 
                DNS:kibitz.csail.mit.edu
            requestingUser: 
                ..quanquan@CSAIL.MIT.EDU
            notifyUser: 
                0...kibitz@csail.mit.edu
    Signature Algorithm: sha1WithRSAEncryption
        7d:65:46:dd:1f:b3:c9:50:08:c9:09:5c:2c:d8:a9:1a:76:d2:
        d6:bb:52:65:5e:10:44:22:30:69:93:09:2b:9f:ba:67:c2:2c:
        0c:e5:b7:41:cb:6c:17:bd:e2:9f:cf:e6:ec:65:bd:04:6c:eb:
        1b:65:92:22:11:52:28:d0:22:d3:8b:59:06:68:6c:21:dd:3d:
        d1:e8:59:92:d1:bd:2e:fa:28:b6:97:93:60:9a:72:6f:6e:2b:
        78:ad:85:83:9d:d3:32:5b:59:e2:0e:04:8e:53:74:e9:2c:2f:
        10:bc:7c:61:e5:5d:36:1e:94:12:24:12:90:9a:82:65:67:f6:
        d6:50:a6:c0:a6:c7:a2:ef:37:4a:32:5d:bf:ea:95:c7:26:19:
        b1:03:cc:71:52:80:c9:b2:ae:f0:cb:d6:98:64:d2:7c:06:8a:
        0b:7c:b3:c7:3c:8a:c6:fa:14:de:17:58:97:cc:43:99:2f:9c:
        41:c7:84:74:4e:db:5d:16:05:07:13:f6:26:ab:d0:03:74:29:
        c1:73:04:01:69:4d:75:7d:21:37:97:04:d6:d2:0f:a5:37:39:
        3b:72:29:b7:a0:05:32:4b:3a:e2:20:6b:6f:b9:d5:d9:5d:e2:
        64:0a:54:ca:6a:1b:0d:c2:89:2b:1b:5c:00:d5:2a:a5:22:45:
        12:7b:ea:e7

-----BEGIN CERTIFICATE-----
MIIFcTCCBFmgAwIBAgICAnkwDQYJKoZIhvcNAQEFBQAwgYoxCzAJBgNVBAYTAlVT
MRYwFAYDVQQIEw1NYXNzYWNodXNldHRzMRIwEAYDVQQHEwlDYW1icmlkZ2UxOzA5
BgNVBAoUMk1JVCBDb21wdXRlciBTY2llbmNlICYgQXJ0aWZpY2lhbCBJbnRlbGxp
Z2VuY2UgTGFiMRIwEAYDVQQDEwlTZXJ2ZXIgQ0EwHhcNMTUwMTIyMDQwNzU4WhcN
MTYwMTIyMDQwNzU4WjCBsjELMAkGA1UEBhMCVVMxFjAUBgNVBAgMDU1hc3NhY2h1
c2V0dHMxEjAQBgNVBAcMCUNhbWJyaWRnZTFCMEAGA1UECgw5TUlUIENvbXB1dGVy
IFNjaWVuY2UgJiBBcnRpZmljaWFsIEludGVsbGlnZW5jZSBMYWJvcmF0b3J5MRQw
EgYDVQQLDAtTU0wgU2VydmVyczEdMBsGA1UEAwwUa2liaXR6LmNzYWlsLm1pdC5l
ZHUwggEiMA0GCSqGSIb3DQEBAQUAA4IBDwAwggEKAoIBAQCQNO+bociL5H777mj+
PE+oQcSA6gpfVrZeWUjey+VkHV8s/2533eakdwOYByWzD05U7EoggZUuLElOSZWX
MurqRkP8cSCXHM7dge+EkzxdRHu/Sz08PArTDv45ab5P9I8SLGv33uOLK8IXVxVY
HEp5Dy4K72weDM/gzX5t54ee/BmcSAm8a2Yb2TsIybmekQz1+r90MaQA98/rZauQ
H8ngd0aRyN2haTPlC69PkNDIfmj+XVGa2n5rw5zcCEoBLJD/IZ9HaEe3APez5q2v
6CfnrzVPRprUPD/tW7tVpzGxhUw52lpSEentl84jna2L0+PUflUOC6iMr3YCDrZq
DLBFAgMBAAGjggG1MIIBsTAOBgNVHQ8BAf8EBAMCBaAwEwYDVR0lBAwwCgYIKwYB
BQUHAwEwEQYJYIZIAYb4QgEBBAQDAgZAMAkGA1UdEwQCMAAwTAYDVR0gBEUwQzBB
BgoqhkiG9xIDAQICMDMwMQYIKwYBBQUHAgEWJWh0dHA6Ly9jYS5jc2FpbC5taXQu
ZWR1L0NTQUlMLWNwcy50eHQwNwYDVR0fBDAwLjAsoCqgKIYmaHR0cDovL2NhLmNz
YWlsLm1pdC5lZHUvY3JsL3NlcnZlci5jcmwwNAYIKwYBBQUHAQEEKDAmMCQGCCsG
AQUFBzAChhhodHRwOi8vY2EuY3NhaWwubWl0LmVkdS8wHQYDVR0OBBYEFK5+LnIb
ONV7dcRNDUVQIEs0fQrRMB8GA1UdIwQYMBaAFA6kv8cUXZlYPdU4RDC1urKcUaVr
MB8GA1UdEQQYMBaCFGtpYml0ei5jc2FpbC5taXQuZWR1MCYGCiqGSIb3EgMBAQIE
GBYWcXVhbnF1YW5AQ1NBSUwuTUlULkVEVTAmBgoqhkiG9xIDAQEBBBgwFhYUa2li
aXR6QGNzYWlsLm1pdC5lZHUwDQYJKoZIhvcNAQEFBQADggEBAH1lRt0fs8lQCMkJ
XCzYqRp20ta7UmVeEEQiMGmTCSufumfCLAzlt0HLbBe94p/P5uxlvQRs6xtlkiIR
UijQItOLWQZobCHdPdHoWZLRvS76KLaXk2Cacm9uK3ithYOd0zJbWeIOBI5TdOks
LxC8fGHlXTYelBIkEpCagmVn9tZQpsCmx6LvN0oyXb/qlccmGbEDzHFSgMmyrvDL
1phk0nwGigt8s8c8isb6FN4XWJfMQ5kvnEHHhHRO210WBQcT9iar0AN0KcFzBAFp
TXV9ITeXBNbSD6U3OTtyKbegBTJLOuIga2+51dld4mQKVMpqGw3CiSsbXADVKqUi
RRJ76uc=
-----END CERTIFICATE-----


