Certificate:
    Data:
        Version: 3 (0x2)
        Serial Number: 0 (0x0)
        Signature Algorithm: sha1WithRSAEncryption
        Issuer: C=US, ST=Massachusetts, L=Cambridge, O=MIT Computer Science & Artificial Intelligence Lab, CN=CSAIL Master CA v2/emailAddress=bug-certificates@csail.mit.edu
        Validity
            Not Before: Jul  1 00:00:00 2011 GMT
            Not After : Jul  1 00:00:00 2021 GMT
        Subject: C=US, ST=Massachusetts, L=Cambridge, O=MIT Computer Science & Artificial Intelligence Lab, CN=CSAIL Master CA v2/emailAddress=bug-certificates@csail.mit.edu
        Subject Public Key Info:
            Public Key Algorithm: rsaEncryption
            RSA Public Key: (3072 bit)
                Modulus (3072 bit):
                    00:b5:91:04:85:73:bf:e0:33:38:90:d0:ef:9f:6c:
                    9c:cb:c4:ea:96:65:44:39:ae:fd:a7:b3:9c:99:2a:
                    ef:af:29:b5:8b:55:aa:57:46:0b:67:54:04:28:85:
                    bc:ea:c4:47:f5:b9:b1:fc:fd:bc:b2:24:53:40:99:
                    73:d1:b1:1d:b8:df:f1:55:5f:59:48:e0:c9:e6:5d:
                    9b:89:e3:2d:7f:8a:30:4b:3d:80:b2:d3:5d:13:50:
                    1a:75:33:c8:eb:2a:60:62:6b:d1:f6:e4:08:f4:c1:
                    60:7f:b8:1d:b1:1d:ff:a1:10:18:d3:ef:7c:9b:c2:
                    56:fa:d2:77:de:26:30:45:ee:d0:eb:86:97:0f:f7:
                    93:78:a6:05:e0:e4:cc:0d:7e:d5:ed:5a:3a:6b:31:
                    ce:94:91:e4:20:08:ea:2f:fb:3d:8e:79:d2:09:ce:
                    f2:51:e9:3f:23:46:bc:6d:e1:33:a6:79:d7:71:41:
                    5d:4c:d6:3f:11:9d:e3:bf:c9:02:46:e1:ab:7f:cd:
                    c9:a0:37:ec:33:93:16:82:2c:92:26:90:e9:d7:d4:
                    58:d4:bf:68:00:1b:f8:f7:0d:8a:af:85:e0:f3:06:
                    96:4e:d2:03:b3:aa:cf:4f:bc:90:28:e4:65:27:28:
                    12:c4:ca:03:7b:27:9a:58:ae:50:af:69:ba:9b:44:
                    d7:85:1d:05:f4:45:17:67:69:ac:0a:70:ba:fb:74:
                    7d:57:93:fd:a4:3d:ce:a3:65:d9:71:38:55:83:da:
                    ff:11:52:e4:8b:a1:d2:d1:6b:02:69:b8:53:38:db:
                    57:b2:70:07:4d:42:d5:af:c8:f5:40:08:f3:60:a8:
                    d6:1c:7c:49:e2:e2:64:08:57:e3:9c:2b:d5:5c:03:
                    38:9a:22:84:5b:54:1f:5e:95:72:73:e6:d7:bf:0d:
                    69:d8:0c:8a:05:93:41:7e:41:80:62:eb:a8:13:d7:
                    78:e0:b9:5c:c6:4b:4d:3a:60:c4:e2:2a:66:7b:bd:
                    ff:10:27:50:9b:18:ee:a6:d7:09
                Exponent: 65537 (0x10001)
        X509v3 extensions:
            X509v3 Basic Constraints: 
                CA:TRUE, pathlen:1
            X509v3 Key Usage: critical
                Certificate Sign, CRL Sign
            X509v3 Subject Alternative Name: 
                email:bug-certificates@csail.mit.edu
            X509v3 Subject Key Identifier: 
                24:70:9B:96:7F:C2:7D:70:77:EF:68:4C:2E:A3:F5:02:23:52:6C:B9
            X509v3 Authority Key Identifier: 
                keyid:24:70:9B:96:7F:C2:7D:70:77:EF:68:4C:2E:A3:F5:02:23:52:6C:B9

    Signature Algorithm: sha1WithRSAEncryption
        18:a3:a0:6a:2c:2b:ae:75:d6:c1:9f:20:6f:ff:54:7c:e5:10:
        9e:a3:1b:87:15:eb:b3:65:40:2e:2a:59:ae:7f:4b:a7:f9:b2:
        ca:5c:ec:bd:3a:d6:f4:0a:16:fc:ea:70:d8:8f:c6:25:33:24:
        c9:5d:fd:28:a6:9a:cb:f7:e3:57:b3:f2:94:7c:e8:fc:3d:36:
        43:42:85:68:56:70:26:73:ca:07:30:10:18:50:b6:5d:d2:52:
        3b:74:16:56:0b:2d:83:b1:19:ea:0d:5a:e3:68:fb:a5:3a:0d:
        24:50:06:3d:e4:7b:15:50:65:43:41:9e:8a:7e:a2:cc:07:b7:
        3b:b3:ac:c0:8f:92:8d:11:76:e9:51:bd:53:ad:d5:9a:f9:97:
        ff:77:fc:f7:20:eb:6b:66:4e:b9:2d:c8:21:a2:ff:16:25:67:
        d3:31:d2:8f:4d:83:c7:1f:66:9b:65:6c:63:78:7d:fe:6a:f9:
        75:e6:3f:12:18:9a:cb:cf:5f:9b:63:74:18:fc:c7:c2:79:51:
        8c:36:bc:48:f3:3f:43:a4:24:f4:60:94:8f:97:95:31:fb:57:
        31:6a:31:eb:8b:77:f3:54:00:77:10:56:1c:8f:7e:54:c6:1d:
        c2:78:10:b0:10:9d:4b:79:36:f5:fc:3c:3d:5c:04:01:58:6b:
        a5:b3:d5:60:d6:a3:0a:25:01:fa:4b:16:09:c4:af:51:54:ec:
        35:1b:cf:2f:24:62:de:00:d3:15:fe:27:4b:86:40:03:c8:81:
        38:7f:d0:a7:91:1d:9f:f3:d0:43:21:2d:b3:ea:62:cf:33:7f:
        02:c1:e5:b7:22:3b:40:75:a9:38:cb:29:32:a2:15:32:7c:b3:
        f1:90:f6:83:16:ca:20:de:d9:b1:da:a2:2d:03:55:cd:60:75:
        23:3b:cd:6c:33:af:ad:20:3f:fc:b2:57:fd:a1:d4:97:95:ed:
        f7:06:a7:15:6f:28:19:9a:54:cf:2f:fb:3c:b0:80:1e:df:4e:
        be:ca:b5:a5:f3:30

-----BEGIN CERTIFICATE-----
MIIFkTCCA/mgAwIBAgIBADANBgkqhkiG9w0BAQUFADCBwjELMAkGA1UEBhMCVVMx
FjAUBgNVBAgMDU1hc3NhY2h1c2V0dHMxEjAQBgNVBAcMCUNhbWJyaWRnZTE7MDkG
A1UECgwyTUlUIENvbXB1dGVyIFNjaWVuY2UgJiBBcnRpZmljaWFsIEludGVsbGln
ZW5jZSBMYWIxGzAZBgNVBAMMEkNTQUlMIE1hc3RlciBDQSB2MjEtMCsGCSqGSIb3
DQEJARYeYnVnLWNlcnRpZmljYXRlc0Bjc2FpbC5taXQuZWR1MB4XDTExMDcwMTAw
MDAwMFoXDTIxMDcwMTAwMDAwMFowgcIxCzAJBgNVBAYTAlVTMRYwFAYDVQQIDA1N
YXNzYWNodXNldHRzMRIwEAYDVQQHDAlDYW1icmlkZ2UxOzA5BgNVBAoMMk1JVCBD
b21wdXRlciBTY2llbmNlICYgQXJ0aWZpY2lhbCBJbnRlbGxpZ2VuY2UgTGFiMRsw
GQYDVQQDDBJDU0FJTCBNYXN0ZXIgQ0EgdjIxLTArBgkqhkiG9w0BCQEWHmJ1Zy1j
ZXJ0aWZpY2F0ZXNAY3NhaWwubWl0LmVkdTCCAaIwDQYJKoZIhvcNAQEBBQADggGP
ADCCAYoCggGBALWRBIVzv+AzOJDQ759snMvE6pZlRDmu/aeznJkq768ptYtVqldG
C2dUBCiFvOrER/W5sfz9vLIkU0CZc9GxHbjf8VVfWUjgyeZdm4njLX+KMEs9gLLT
XRNQGnUzyOsqYGJr0fbkCPTBYH+4HbEd/6EQGNPvfJvCVvrSd94mMEXu0OuGlw/3
k3imBeDkzA1+1e1aOmsxzpSR5CAI6i/7PY550gnO8lHpPyNGvG3hM6Z513FBXUzW
PxGd47/JAkbhq3/NyaA37DOTFoIskiaQ6dfUWNS/aAAb+PcNiq+F4PMGlk7SA7Oq
z0+8kCjkZScoEsTKA3snmliuUK9puptE14UdBfRFF2dprApwuvt0fVeT/aQ9zqNl
2XE4VYPa/xFS5Iuh0tFrAmm4UzjbV7JwB01C1a/I9UAI82Co1hx8SeLiZAhX45wr
1VwDOJoihFtUH16VcnPm178NadgMigWTQX5BgGLrqBPXeOC5XMZLTTpgxOIqZnu9
/xAnUJsY7qbXCQIDAQABo4GPMIGMMA8GA1UdEwQIMAYBAf8CAQEwDgYDVR0PAQH/
BAQDAgAGMCkGA1UdEQQiMCCBHmJ1Zy1jZXJ0aWZpY2F0ZXNAY3NhaWwubWl0LmVk
dTAdBgNVHQ4EFgQUJHCbln/CfXB372hMLqP1AiNSbLkwHwYDVR0jBBgwFoAUJHCb
ln/CfXB372hMLqP1AiNSbLkwDQYJKoZIhvcNAQEFBQADggGBABijoGosK6511sGf
IG//VHzlEJ6jG4cV67NlQC4qWa5/S6f5sspc7L061vQKFvzqcNiPxiUzJMld/Sim
msv341ez8pR86Pw9NkNChWhWcCZzygcwEBhQtl3SUjt0FlYLLYOxGeoNWuNo+6U6
DSRQBj3kexVQZUNBnop+oswHtzuzrMCPko0RdulRvVOt1Zr5l/93/Pcg62tmTrkt
yCGi/xYlZ9Mx0o9Ng8cfZptlbGN4ff5q+XXmPxIYmsvPX5tjdBj8x8J5UYw2vEjz
P0OkJPRglI+XlTH7VzFqMeuLd/NUAHcQVhyPflTGHcJ4ELAQnUt5NvX8PD1cBAFY
a6Wz1WDWowolAfpLFgnEr1FU7DUbzy8kYt4A0xX+J0uGQAPIgTh/0KeRHZ/z0EMh
LbPqYs8zfwLB5bciO0B1qTjLKTKiFTJ8s/GQ9oMWyiDe2bHaoi0DVc1gdSM7zWwz
r60gP/yyV/2h1JeV7fcGpxVvKBmaVM8v+zywgB7fTr7KtaXzMA==
-----END CERTIFICATE-----

